target datalayout = "e-m:e-p270:32:32-p271:32:32-p272:64:64-i64:64-i128:128-f80:128-n8:16:32:64-S128"
target triple = "x86_64-pc-linux-gnu"

%struct.VirtualTransactionId = type { i32, i32 }
%struct.PGPROC = type { %struct.dlist_node, ptr, ptr, i32, %struct.Latch, i32, i32, i32, i32, %struct.anon, i32, i32, i32, i8, i8, i8, i8, %struct.proclist_node, %struct.proclist_node, ptr, ptr, i32, i32, %struct.pg_atomic_uint64, i32, i8, i64, i32, %struct.dlist_node, [16 x %struct.dlist_head], %struct.XidCacheStatus, %struct.XidCache, i8, %struct.pg_atomic_uint32, i32, i32, i8, %struct.pg_atomic_uint32, i32, i32, i64, i64, %struct.LWLock, ptr, ptr, i8, i32, ptr, %struct.dlist_head, %struct.dlist_node }
%struct.Latch = type { i32, i32, i8, i32 }
%struct.anon = type { i32, i32 }
%struct.proclist_node = type { i32, i32 }
%struct.pg_atomic_uint64 = type { i64 }
%struct.XidCacheStatus = type { i8, i8 }
%struct.XidCache = type { [64 x i32] }
%struct.pg_atomic_uint32 = type { i32 }
%struct.LWLock = type { i16, %struct.pg_atomic_uint32, %struct.proclist_head }
%struct.proclist_head = type { i32, i32 }
%struct.dlist_head = type { %struct.dlist_node }
%struct.dlist_node = type { ptr, ptr }
%struct.StringInfoData = type { ptr, i32, i32, i32 }

@.str.2 = private unnamed_addr constant [3 x i8] c"%d\00", align 1
@.str.3 = private unnamed_addr constant [5 x i8] c", %d\00", align 1
@.str.4 = private unnamed_addr constant [45 x i8] c"recovery still waiting after %ld.%03d ms: %s\00", align 1
@.str.5 = private unnamed_addr constant [25 x i8] c"Conflicting process: %s.\00", align 1
@.str.6 = private unnamed_addr constant [27 x i8] c"Conflicting processes: %s.\00", align 1
@.str.7 = private unnamed_addr constant [10 x i8] c"standby.c\00", align 1
@__func__.LogRecoveryConflict = private unnamed_addr constant [20 x i8] c"LogRecoveryConflict\00", align 1
@.str.8 = private unnamed_addr constant [48 x i8] c"recovery finished waiting after %ld.%03d ms: %s\00", align 1
@.str.19 = private unnamed_addr constant [15 x i8] c"unknown reason\00", align 1
@.str.20 = private unnamed_addr constant [32 x i8] c"recovery conflict on buffer pin\00", align 1
@.str.21 = private unnamed_addr constant [26 x i8] c"recovery conflict on lock\00", align 1
@.str.22 = private unnamed_addr constant [32 x i8] c"recovery conflict on tablespace\00", align 1
@.str.23 = private unnamed_addr constant [30 x i8] c"recovery conflict on snapshot\00", align 1
@.str.24 = private unnamed_addr constant [38 x i8] c"recovery conflict on replication slot\00", align 1
@.str.25 = private unnamed_addr constant [37 x i8] c"recovery conflict on buffer deadlock\00", align 1
@.str.26 = private unnamed_addr constant [30 x i8] c"recovery conflict on database\00", align 1

; Function Attrs: nounwind uwtable
define internal ptr @get_recovery_conflict_desc(i32 noundef %0) #0 {
  %2 = alloca i32, align 4
  %3 = alloca ptr, align 8
  store i32 %0, ptr %2, align 4
  call void @llvm.lifetime.start.p0(i64 8, ptr %3) #8
  store ptr @.str.19, ptr %3, align 8
  %4 = load i32, ptr %2, align 4
  switch i32 %4, label %12 [
    i32 12, label %5
    i32 9, label %6
    i32 8, label %7
    i32 10, label %8
    i32 11, label %9
    i32 13, label %10
    i32 7, label %11
  ]

5:                                                ; preds = %1
  store ptr @.str.20, ptr %3, align 8
  br label %13

6:                                                ; preds = %1
  store ptr @.str.21, ptr %3, align 8
  br label %13

7:                                                ; preds = %1
  store ptr @.str.22, ptr %3, align 8
  br label %13

8:                                                ; preds = %1
  store ptr @.str.23, ptr %3, align 8
  br label %13

9:                                                ; preds = %1
  store ptr @.str.24, ptr %3, align 8
  br label %13

10:                                               ; preds = %1
  store ptr @.str.25, ptr %3, align 8
  br label %13

11:                                               ; preds = %1
  store ptr @.str.26, ptr %3, align 8
  br label %13

12:                                               ; preds = %1
  br label %13

13:                                               ; preds = %12, %11, %10, %9, %8, %7, %6, %5
  %14 = load ptr, ptr %3, align 8
  call void @llvm.lifetime.end.p0(i64 8, ptr %3) #8
  ret ptr %14
}

; Function Attrs: nounwind uwtable
define dso_local void @LogRecoveryConflict(i32 noundef %0, i64 noundef %1, i64 noundef %2, ptr noundef %3, i1 noundef zeroext %4) #0 {
  %6 = alloca i32, align 4
  %7 = alloca i64, align 8
  %8 = alloca i64, align 8
  %9 = alloca ptr, align 8
  %10 = alloca i8, align 1
  %11 = alloca i64, align 8
  %12 = alloca i32, align 4
  %13 = alloca i64, align 8
  %14 = alloca %struct.StringInfoData, align 8
  %15 = alloca i32, align 4
  %16 = alloca ptr, align 8
  %17 = alloca ptr, align 8
  store i32 %0, ptr %6, align 4
  store i64 %1, ptr %7, align 8
  store i64 %2, ptr %8, align 8
  store ptr %3, ptr %9, align 8
  %18 = zext i1 %4 to i8
  store i8 %18, ptr %10, align 1
  call void @llvm.lifetime.start.p0(i64 8, ptr %11) #8
  call void @llvm.lifetime.start.p0(i64 4, ptr %12) #8
  call void @llvm.lifetime.start.p0(i64 8, ptr %13) #8
  call void @llvm.lifetime.start.p0(i64 24, ptr %14) #8
  call void @llvm.lifetime.start.p0(i64 4, ptr %15) #8
  store i32 0, ptr %15, align 4
  %19 = load i64, ptr %7, align 8
  %20 = load i64, ptr %8, align 8
  call void @TimestampDifference(i64 noundef %19, i64 noundef %20, ptr noundef %11, ptr noundef %12)
  %21 = load i64, ptr %11, align 8
  %22 = mul i64 %21, 1000
  %23 = load i32, ptr %12, align 4
  %24 = sdiv i32 %23, 1000
  %25 = sext i32 %24 to i64
  %26 = add i64 %22, %25
  store i64 %26, ptr %13, align 8
  %27 = load i32, ptr %12, align 4
  %28 = srem i32 %27, 1000
  store i32 %28, ptr %12, align 4
  %29 = load ptr, ptr %9, align 8
  %30 = icmp ne ptr %29, null
  br i1 %30, label %31, label %63

31:                                               ; preds = %5
  call void @llvm.lifetime.start.p0(i64 8, ptr %16) #8
  %32 = load ptr, ptr %9, align 8
  store ptr %32, ptr %16, align 8
  br label %33

33:                                               ; preds = %59, %31
  %34 = load ptr, ptr %16, align 8
  %35 = getelementptr inbounds nuw %struct.VirtualTransactionId, ptr %34, i32 0, i32 1
  %36 = load i32, ptr %35, align 4
  %37 = icmp ne i32 %36, 0
  br i1 %37, label %38, label %62

38:                                               ; preds = %33
  call void @llvm.lifetime.start.p0(i64 8, ptr %17) #8
  %39 = load ptr, ptr %16, align 8
  %40 = getelementptr inbounds nuw %struct.VirtualTransactionId, ptr %39, i32 0, i32 0
  %41 = load i32, ptr %40, align 4
  %42 = call ptr @ProcNumberGetProc(i32 noundef %41)
  store ptr %42, ptr %17, align 8
  %43 = load ptr, ptr %17, align 8
  %44 = icmp ne ptr %43, null
  br i1 %44, label %45, label %59

45:                                               ; preds = %38
  %46 = load i32, ptr %15, align 4
  %47 = icmp eq i32 %46, 0
  br i1 %47, label %48, label %52

48:                                               ; preds = %45
  call void @initStringInfo(ptr noundef %14)
  %49 = load ptr, ptr %17, align 8
  %50 = getelementptr inbounds nuw %struct.PGPROC, ptr %49, i32 0, i32 7
  %51 = load i32, ptr %50, align 4
  call void (ptr, ptr, ...) @appendStringInfo(ptr noundef %14, ptr noundef @.str.2, i32 noundef %51)
  br label %56

52:                                               ; preds = %45
  %53 = load ptr, ptr %17, align 8
  %54 = getelementptr inbounds nuw %struct.PGPROC, ptr %53, i32 0, i32 7
  %55 = load i32, ptr %54, align 4
  call void (ptr, ptr, ...) @appendStringInfo(ptr noundef %14, ptr noundef @.str.3, i32 noundef %55)
  br label %56

56:                                               ; preds = %52, %48
  %57 = load i32, ptr %15, align 4
  %58 = add i32 %57, 1
  store i32 %58, ptr %15, align 4
  br label %59

59:                                               ; preds = %56, %38
  %60 = load ptr, ptr %16, align 8
  %61 = getelementptr inbounds nuw %struct.VirtualTransactionId, ptr %60, i32 1
  store ptr %61, ptr %16, align 8
  call void @llvm.lifetime.end.p0(i64 8, ptr %17) #8
  br label %33, !llvm.loop !6

62:                                               ; preds = %33
  call void @llvm.lifetime.end.p0(i64 8, ptr %16) #8
  br label %63

63:                                               ; preds = %62, %5
  %64 = load i8, ptr %10, align 1, !range !7, !noundef !8
  %65 = trunc i8 %64 to i1
  br i1 %65, label %66, label %91

66:                                               ; preds = %63
  br label %67

67:                                               ; preds = %66
  br i1 false, label %68, label %70

68:                                               ; preds = %67
  %69 = call zeroext i1 @errstart_cold(i32 noundef 15, ptr noundef null) #9
  br i1 %69, label %72, label %88

70:                                               ; preds = %67
  %71 = call zeroext i1 @errstart(i32 noundef 15, ptr noundef null)
  br i1 %71, label %72, label %88

72:                                               ; preds = %70, %68
  %73 = load i64, ptr %13, align 8
  %74 = load i32, ptr %12, align 4
  %75 = load i32, ptr %6, align 4
  %76 = call ptr @get_recovery_conflict_desc(i32 noundef %75)
  %77 = call i32 (ptr, ...) @errmsg(ptr noundef @.str.4, i64 noundef %73, i32 noundef %74, ptr noundef %76)
  %78 = load i32, ptr %15, align 4
  %79 = icmp sgt i32 %78, 0
  br i1 %79, label %80, label %86

80:                                               ; preds = %72
  %81 = load i32, ptr %15, align 4
  %82 = sext i32 %81 to i64
  %83 = getelementptr inbounds nuw %struct.StringInfoData, ptr %14, i32 0, i32 0
  %84 = load ptr, ptr %83, align 8
  %85 = call i32 (ptr, ptr, i64, ...) @errdetail_log_plural(ptr noundef @.str.5, ptr noundef @.str.6, i64 noundef %82, ptr noundef %84)
  br label %87

86:                                               ; preds = %72
  br label %87

87:                                               ; preds = %86, %80
  call void @errfinish(ptr noundef @.str.7, i32 noundef 333, ptr noundef @__func__.LogRecoveryConflict)
  br label %88

88:                                               ; preds = %87, %70, %68
  br label %89

89:                                               ; preds = %88
  br label %90

90:                                               ; preds = %89
  br label %106

91:                                               ; preds = %63
  br label %92

92:                                               ; preds = %91
  br i1 false, label %93, label %95

93:                                               ; preds = %92
  %94 = call zeroext i1 @errstart_cold(i32 noundef 15, ptr noundef null) #9
  br i1 %94, label %97, label %103

95:                                               ; preds = %92
  %96 = call zeroext i1 @errstart(i32 noundef 15, ptr noundef null)
  br i1 %96, label %97, label %103

97:                                               ; preds = %95, %93
  %98 = load i64, ptr %13, align 8
  %99 = load i32, ptr %12, align 4
  %100 = load i32, ptr %6, align 4
  %101 = call ptr @get_recovery_conflict_desc(i32 noundef %100)
  %102 = call i32 (ptr, ...) @errmsg(ptr noundef @.str.8, i64 noundef %98, i32 noundef %99, ptr noundef %101)
  call void @errfinish(ptr noundef @.str.7, i32 noundef 339, ptr noundef @__func__.LogRecoveryConflict)
  br label %103

103:                                              ; preds = %97, %95, %93
  br label %104

104:                                              ; preds = %103
  br label %105

105:                                              ; preds = %104
  br label %106

106:                                              ; preds = %105, %90
  %107 = load i32, ptr %15, align 4
  %108 = icmp sgt i32 %107, 0
  br i1 %108, label %109, label %112

109:                                              ; preds = %106
  %110 = getelementptr inbounds nuw %struct.StringInfoData, ptr %14, i32 0, i32 0
  %111 = load ptr, ptr %110, align 8
  call void @pfree(ptr noundef %111)
  br label %112

112:                                              ; preds = %109, %106
  call void @llvm.lifetime.end.p0(i64 4, ptr %15) #8
  call void @llvm.lifetime.end.p0(i64 24, ptr %14) #8
  call void @llvm.lifetime.end.p0(i64 8, ptr %13) #8
  call void @llvm.lifetime.end.p0(i64 4, ptr %12) #8
  call void @llvm.lifetime.end.p0(i64 8, ptr %11) #8
  ret void
}