; Function Attrs: nounwind uwtable
define dso_local void @LogRecoveryConflict(i32 noundef %0, i64 noundef %1, i64 noundef %2, ptr noundef readonly captures(address_is_null) %3, i1 noundef zeroext %4) local_unnamed_addr #0 {
  %6 = alloca i64, align 8
  %7 = alloca i32, align 4
  %8 = alloca %struct.StringInfoData, align 8
  call void @llvm.lifetime.start.p0(i64 8, ptr nonnull %6) #7
  call void @llvm.lifetime.start.p0(i64 4, ptr nonnull %7) #7
  call void @llvm.lifetime.start.p0(i64 24, ptr nonnull %8) #7
  call void @TimestampDifference(i64 noundef %1, i64 noundef %2, ptr noundef nonnull %6, ptr noundef nonnull %7) #7
  %9 = load i64, ptr %6, align 8
  %10 = mul i64 %9, 1000
  %11 = load i32, ptr %7, align 4
  %12 = sdiv i32 %11, 1000
  %13 = sext i32 %12 to i64
  %14 = add i64 %10, %13
  %15 = srem i32 %11, 1000
  store i32 %15, ptr %7, align 4
  %.not = icmp eq ptr %3, null
  br i1 %.not, label %.loopexit, label %.preheader

.preheader:                                       ; preds = %5
  %16 = getelementptr inbounds nuw i8, ptr %3, i64 4
  %17 = load i32, ptr %16, align 4
  %.not2226 = icmp eq i32 %17, 0
  br i1 %.not2226, label %.loopexit, label %.lr.ph

.lr.ph:                                           ; preds = %.preheader, %27
  %.128 = phi i32 [ %.2, %27 ], [ 0, %.preheader ]
  %.01927 = phi ptr [ %28, %27 ], [ %3, %.preheader ]
  %18 = load i32, ptr %.01927, align 4
  %19 = call ptr @ProcNumberGetProc(i32 noundef %18) #7
  %.not23 = icmp eq ptr %19, null
  br i1 %.not23, label %27, label %20

20:                                               ; preds = %.lr.ph
  %21 = icmp eq i32 %.128, 0
  br i1 %21, label %22, label %23

22:                                               ; preds = %20
  call void @initStringInfo(ptr noundef nonnull %8) #7
  br label %23

23:                                               ; preds = %20, %22
  %.str.3.sink = phi ptr [ @.str.2, %22 ], [ @.str.3, %20 ]
  %24 = getelementptr inbounds nuw i8, ptr %19, i64 60
  %25 = load i32, ptr %24, align 4
  call void (ptr, ptr, ...) @appendStringInfo(ptr noundef nonnull %8, ptr noundef nonnull %.str.3.sink, i32 noundef %25) #7
  %26 = add i32 %.128, 1
  br label %27

27:                                               ; preds = %23, %.lr.ph
  %.2 = phi i32 [ %26, %23 ], [ %.128, %.lr.ph ]
  %28 = getelementptr inbounds nuw i8, ptr %.01927, i64 8
  %29 = getelementptr inbounds nuw i8, ptr %.01927, i64 12
  %30 = load i32, ptr %29, align 4
  %.not22 = icmp eq i32 %30, 0
  br i1 %.not22, label %.loopexit, label %.lr.ph, !llvm.loop !6

.loopexit:                                        ; preds = %27, %.preheader, %5
  %.0 = phi i32 [ 0, %5 ], [ 0, %.preheader ], [ %.2, %27 ]
  %31 = call zeroext i1 @errstart(i32 noundef 15, ptr noundef null) #7
  br i1 %4, label %32, label %43

32:                                               ; preds = %.loopexit
  br i1 %31, label %33, label %49

33:                                               ; preds = %32
  %34 = load i32, ptr %7, align 4
  %switch.tableidx = add i32 %0, -7
  %35 = icmp ult i32 %switch.tableidx, 7
  br i1 %35, label %switch.lookup, label %get_recovery_conflict_desc.exit

switch.lookup:                                    ; preds = %33
  %36 = zext nneg i32 %switch.tableidx to i64
  %switch.gep = getelementptr inbounds nuw [7 x ptr], ptr @switch.table.LogRecoveryConflict.1, i64 0, i64 %36
  %switch.load = load ptr, ptr %switch.gep, align 8
  br label %get_recovery_conflict_desc.exit

get_recovery_conflict_desc.exit:                  ; preds = %switch.lookup, %33
  %.0.i = phi ptr [ @.str.19, %33 ], [ %switch.load, %switch.lookup ]
  %37 = call i32 (ptr, ...) @errmsg(ptr noundef nonnull @.str.4, i64 noundef %14, i32 noundef %34, ptr noundef nonnull %.0.i) #7
  %38 = icmp sgt i32 %.0, 0
  br i1 %38, label %39, label %.sink.split

39:                                               ; preds = %get_recovery_conflict_desc.exit
  %40 = zext nneg i32 %.0 to i64
  %41 = load ptr, ptr %8, align 8
  %42 = call i32 (ptr, ptr, i64, ...) @errdetail_log_plural(ptr noundef nonnull @.str.5, ptr noundef nonnull @.str.6, i64 noundef %40, ptr noundef %41) #7
  br label %.sink.split

43:                                               ; preds = %.loopexit
  br i1 %31, label %44, label %49

44:                                               ; preds = %43
  %45 = load i32, ptr %7, align 4
  %switch.tableidx31 = add i32 %0, -7
  %46 = icmp ult i32 %switch.tableidx31, 7
  br i1 %46, label %switch.lookup30, label %get_recovery_conflict_desc.exit25

switch.lookup30:                                  ; preds = %44
  %47 = zext nneg i32 %switch.tableidx31 to i64
  %switch.gep32 = getelementptr inbounds nuw [7 x ptr], ptr @switch.table.LogRecoveryConflict.1, i64 0, i64 %47
  %switch.load33 = load ptr, ptr %switch.gep32, align 8
  br label %get_recovery_conflict_desc.exit25

get_recovery_conflict_desc.exit25:                ; preds = %switch.lookup30, %44
  %.0.i24 = phi ptr [ @.str.19, %44 ], [ %switch.load33, %switch.lookup30 ]
  %48 = call i32 (ptr, ...) @errmsg(ptr noundef nonnull @.str.8, i64 noundef %14, i32 noundef %45, ptr noundef nonnull %.0.i24) #7
  br label %.sink.split

.sink.split:                                      ; preds = %39, %get_recovery_conflict_desc.exit, %get_recovery_conflict_desc.exit25
  %.sink = phi i32 [ 339, %get_recovery_conflict_desc.exit25 ], [ 333, %get_recovery_conflict_desc.exit ], [ 333, %39 ]
  call void @errfinish(ptr noundef nonnull @.str.7, i32 noundef %.sink, ptr noundef nonnull @__func__.LogRecoveryConflict) #7
  br label %49

49:                                               ; preds = %.sink.split, %43, %32
  %50 = icmp sgt i32 %.0, 0
  br i1 %50, label %51, label %53

51:                                               ; preds = %49
  %52 = load ptr, ptr %8, align 8
  call void @pfree(ptr noundef %52) #7
  br label %53

53:                                               ; preds = %51, %49
  call void @llvm.lifetime.end.p0(i64 24, ptr nonnull %8) #7
  call void @llvm.lifetime.end.p0(i64 4, ptr nonnull %7) #7
  call void @llvm.lifetime.end.p0(i64 8, ptr nonnull %6) #7
  ret void
}